target datalayout = "e-m:e-p270:32:32-p271:32:32-p272:64:64-i64:64-i128:128-f80:128-n8:16:32:64-S128"
target triple = "x86_64-unknown-linux-gnu"

%"struct.llvh::fltSemantics" = type { i16, i16, i32, i32 }
%"class.llvh::detail::IEEEFloat" = type <{ ptr, %"union.llvh::detail::IEEEFloat::Significand", i16, i8, [5 x i8] }>
%"union.llvh::detail::IEEEFloat::Significand" = type { i64 }
%"class.llvh::APFloat" = type { [8 x i8], %"union.llvh::APFloat::Storage" }
%"union.llvh::APFloat::Storage" = type { %"class.llvh::detail::DoubleAPFloat", [8 x i8] }
%"class.llvh::detail::DoubleAPFloat" = type { ptr, %"class.std::unique_ptr" }
%"class.std::unique_ptr" = type { %"struct.std::__uniq_ptr_data" }
%"struct.std::__uniq_ptr_data" = type { %"class.std::__uniq_ptr_impl" }
%"class.std::__uniq_ptr_impl" = type { %"class.std::tuple" }
%"class.std::tuple" = type { %"struct.std::_Tuple_impl" }
%"struct.std::_Tuple_impl" = type { %"struct.std::_Head_base.3" }
%"struct.std::_Head_base.3" = type { ptr }

@_ZN4llvhL18semPPCDoubleDoubleE = internal constant %"struct.llvh::fltSemantics" { i16 -1, i16 0, i32 0, i32 0 }, align 4
@_ZN4llvh6detail13DoubleAPFloatC1ERKS1_ = hidden unnamed_addr alias void (ptr, ptr), ptr @_ZN4llvh6detail13DoubleAPFloatC2ERKS1_

; Function Attrs: mustprogress nounwind uwtable
define linkonce_odr hidden noundef nonnull align 8 dereferenceable(8) ptr @_ZNSt10_Head_baseILm0EPN4llvh7APFloatELb0EE7_M_headERKS3_(ptr noundef nonnull align 8 dereferenceable(8) %__b) #1 comdat align 2 {
entry:
  %__b.addr = alloca ptr, align 8
  store ptr %__b, ptr %__b.addr, align 8
  %0 = load ptr, ptr %__b.addr, align 8
  %_M_head_impl = getelementptr inbounds %"struct.std::_Head_base.3", ptr %0, i32 0, i32 0
  ret ptr %_M_head_impl
}

; Function Attrs: mustprogress nounwind uwtable
define linkonce_odr hidden noundef nonnull align 8 dereferenceable(8) ptr @_ZNSt11_Tuple_implILm0EJPN4llvh7APFloatESt14default_deleteIA_S1_EEE7_M_headERKS6_(ptr noundef nonnull align 8 dereferenceable(8) %__t) #1 comdat align 2 {
entry:
  %__t.addr = alloca ptr, align 8
  store ptr %__t, ptr %__t.addr, align 8
  %0 = load ptr, ptr %__t.addr, align 8
  %call = call noundef nonnull align 8 dereferenceable(8) ptr @_ZNSt10_Head_baseILm0EPN4llvh7APFloatELb0EE7_M_headERKS3_(ptr noundef nonnull align 8 dereferenceable(8) %0) #10
  ret ptr %call
}

; Function Attrs: mustprogress nounwind uwtable
define linkonce_odr hidden noundef nonnull align 8 dereferenceable(8) ptr @_ZSt12__get_helperILm0EPN4llvh7APFloatEJSt14default_deleteIA_S1_EEERKT0_RKSt11_Tuple_implIXT_EJS6_DpT1_EE(ptr noundef nonnull align 8 dereferenceable(8) %__t) #1 comdat {
entry:
  %__t.addr = alloca ptr, align 8
  store ptr %__t, ptr %__t.addr, align 8
  %0 = load ptr, ptr %__t.addr, align 8
  %call = call noundef nonnull align 8 dereferenceable(8) ptr @_ZNSt11_Tuple_implILm0EJPN4llvh7APFloatESt14default_deleteIA_S1_EEE7_M_headERKS6_(ptr noundef nonnull align 8 dereferenceable(8) %0) #10
  ret ptr %call
}

; Function Attrs: mustprogress nounwind willreturn memory(none) uwtable
define hidden noundef nonnull align 4 dereferenceable(12) ptr @_ZN4llvh11APFloatBase15PPCDoubleDoubleEv() #0 align 2 {
entry:
  ret ptr @_ZN4llvhL18semPPCDoubleDoubleE
}

; Function Attrs: mustprogress nounwind uwtable
define linkonce_odr hidden noundef nonnull align 8 dereferenceable(8) ptr @_ZSt3getILm0EJPN4llvh7APFloatESt14default_deleteIA_S1_EEERKNSt13tuple_elementIXT_ESt5tupleIJDpT0_EEE4typeERKSA_(ptr noundef nonnull align 8 dereferenceable(8) %__t) #1 comdat {
entry:
  %__t.addr = alloca ptr, align 8
  store ptr %__t, ptr %__t.addr, align 8
  %0 = load ptr, ptr %__t.addr, align 8
  %call = call noundef nonnull align 8 dereferenceable(8) ptr @_ZSt12__get_helperILm0EPN4llvh7APFloatEJSt14default_deleteIA_S1_EEERKT0_RKSt11_Tuple_implIXT_EJS6_DpT1_EE(ptr noundef nonnull align 8 dereferenceable(8) %0) #10
  ret ptr %call
}

; Function Attrs: mustprogress nounwind uwtable
define linkonce_odr hidden noundef nonnull align 8 dereferenceable(32) ptr @_ZNK4llvh6detail13DoubleAPFloat8getFirstEv(ptr noundef nonnull align 8 dereferenceable(16) %this) #1 comdat align 2 {
entry:
  %this.addr = alloca ptr, align 8
  store ptr %this, ptr %this.addr, align 8
  %this1 = load ptr, ptr %this.addr, align 8
  %Floats = getelementptr inbounds %"class.llvh::detail::DoubleAPFloat", ptr %this1, i32 0, i32 1
  %call = call noundef nonnull align 8 dereferenceable(32) ptr @_ZNKSt10unique_ptrIA_N4llvh7APFloatESt14default_deleteIS2_EEixEm(ptr noundef nonnull align 8 dereferenceable(8) %Floats, i64 noundef 0)
  ret ptr %call
}

; Function Attrs: mustprogress nounwind uwtable
define linkonce_odr hidden noundef zeroext i1 @_ZN4llvh7APFloat10usesLayoutINS_6detail13DoubleAPFloatEEEbRKNS_12fltSemanticsE(ptr noundef nonnull align 4 dereferenceable(12) %Semantics) #1 comdat align 2 {
entry:
  %Semantics.addr = alloca ptr, align 8
  store ptr %Semantics, ptr %Semantics.addr, align 8
  %0 = load ptr, ptr %Semantics.addr, align 8
  %call = call noundef nonnull align 4 dereferenceable(12) ptr @_ZN4llvh11APFloatBase15PPCDoubleDoubleEv() #16
  %cmp = icmp eq ptr %0, %call
  ret i1 %cmp
}

; Function Attrs: mustprogress nounwind uwtable
define linkonce_odr hidden noundef zeroext i1 @_ZN4llvh7APFloat10usesLayoutINS_6detail9IEEEFloatEEEbRKNS_12fltSemanticsE(ptr noundef nonnull align 4 dereferenceable(12) %Semantics) #1 comdat align 2 {
entry:
  %Semantics.addr = alloca ptr, align 8
  store ptr %Semantics, ptr %Semantics.addr, align 8
  %0 = load ptr, ptr %Semantics.addr, align 8
  %call = call noundef nonnull align 4 dereferenceable(12) ptr @_ZN4llvh11APFloatBase15PPCDoubleDoubleEv() #16
  %cmp = icmp ne ptr %0, %call
  ret i1 %cmp
}

; Function Attrs: mustprogress nounwind uwtable
define linkonce_odr hidden noundef ptr @_ZNKSt15__uniq_ptr_implIN4llvh7APFloatESt14default_deleteIA_S1_EE6_M_ptrEv(ptr noundef nonnull align 8 dereferenceable(8) %this) #1 comdat align 2 {
entry:
  %this.addr = alloca ptr, align 8
  store ptr %this, ptr %this.addr, align 8
  %this1 = load ptr, ptr %this.addr, align 8
  %_M_t = getelementptr inbounds %"class.std::__uniq_ptr_impl", ptr %this1, i32 0, i32 0
  %call = call noundef nonnull align 8 dereferenceable(8) ptr @_ZSt3getILm0EJPN4llvh7APFloatESt14default_deleteIA_S1_EEERKNSt13tuple_elementIXT_ESt5tupleIJDpT0_EEE4typeERKSA_(ptr noundef nonnull align 8 dereferenceable(8) %_M_t) #10
  %0 = load ptr, ptr %call, align 8
  ret ptr %0
}

; Function Attrs: mustprogress nounwind uwtable
define linkonce_odr hidden noundef zeroext i1 @_ZNK4llvh6detail9IEEEFloat10isNegativeEv(ptr noundef nonnull align 8 dereferenceable(24) %this) #1 comdat align 2 {
entry:
  %this.addr = alloca ptr, align 8
  store ptr %this, ptr %this.addr, align 8
  %this1 = load ptr, ptr %this.addr, align 8
  %sign = getelementptr inbounds %"class.llvh::detail::IEEEFloat", ptr %this1, i32 0, i32 3
  %bf.load = load i8, ptr %sign, align 2
  %bf.lshr = lshr i8 %bf.load, 3
  %bf.clear = and i8 %bf.lshr, 1
  %bf.cast = zext i8 %bf.clear to i32
  %tobool = icmp ne i32 %bf.cast, 0
  ret i1 %tobool
}

; Function Attrs: mustprogress nounwind uwtable
define linkonce_odr hidden noundef i32 @_ZNK4llvh6detail9IEEEFloat11getCategoryEv(ptr noundef nonnull align 8 dereferenceable(24) %this) #1 comdat align 2 {
entry:
  %this.addr = alloca ptr, align 8
  store ptr %this, ptr %this.addr, align 8
  %this1 = load ptr, ptr %this.addr, align 8
  %category = getelementptr inbounds %"class.llvh::detail::IEEEFloat", ptr %this1, i32 0, i32 3
  %bf.load = load i8, ptr %category, align 2
  %bf.clear = and i8 %bf.load, 7
  %bf.cast = zext i8 %bf.clear to i32
  ret i32 %bf.cast
}

; Function Attrs: mustprogress nounwind uwtable
define linkonce_odr hidden noundef nonnull align 8 dereferenceable(24) ptr @_ZNK4llvh7APFloat7getIEEEEv(ptr noundef nonnull align 8 dereferenceable(32) %this) #1 comdat align 2 {
entry:
  %retval = alloca ptr, align 8
  %this.addr = alloca ptr, align 8
  store ptr %this, ptr %this.addr, align 8
  %this1 = load ptr, ptr %this.addr, align 8
  %U = getelementptr inbounds %"class.llvh::APFloat", ptr %this1, i32 0, i32 1
  %0 = load ptr, ptr %U, align 8
  %call = call noundef zeroext i1 @_ZN4llvh7APFloat10usesLayoutINS_6detail9IEEEFloatEEEbRKNS_12fltSemanticsE(ptr noundef nonnull align 4 dereferenceable(12) %0)
  br i1 %call, label %if.then, label %if.end

if.then:                                          ; preds = %entry
  %U2 = getelementptr inbounds %"class.llvh::APFloat", ptr %this1, i32 0, i32 1
  store ptr %U2, ptr %retval, align 8
  br label %return

if.end:                                           ; preds = %entry
  %U3 = getelementptr inbounds %"class.llvh::APFloat", ptr %this1, i32 0, i32 1
  %1 = load ptr, ptr %U3, align 8
  %call4 = call noundef zeroext i1 @_ZN4llvh7APFloat10usesLayoutINS_6detail13DoubleAPFloatEEEbRKNS_12fltSemanticsE(ptr noundef nonnull align 4 dereferenceable(12) %1)
  br i1 %call4, label %if.then5, label %if.end9

if.then5:                                         ; preds = %if.end
  %U6 = getelementptr inbounds %"class.llvh::APFloat", ptr %this1, i32 0, i32 1
  %call7 = call noundef nonnull align 8 dereferenceable(32) ptr @_ZNK4llvh6detail13DoubleAPFloat8getFirstEv(ptr noundef nonnull align 8 dereferenceable(16) %U6)
  %U8 = getelementptr inbounds %"class.llvh::APFloat", ptr %call7, i32 0, i32 1
  store ptr %U8, ptr %retval, align 8
  br label %return

if.end9:                                          ; preds = %if.end
  unreachable

return:                                           ; preds = %if.then5, %if.then
  %2 = load ptr, ptr %retval, align 8
  ret ptr %2
}

; Function Attrs: mustprogress nounwind uwtable
define linkonce_odr hidden noundef ptr @_ZNKSt10unique_ptrIA_N4llvh7APFloatESt14default_deleteIS2_EE3getEv(ptr noundef nonnull align 8 dereferenceable(8) %this) #1 comdat align 2 {
entry:
  %this.addr = alloca ptr, align 8
  store ptr %this, ptr %this.addr, align 8
  %this1 = load ptr, ptr %this.addr, align 8
  %_M_t = getelementptr inbounds %"class.std::unique_ptr", ptr %this1, i32 0, i32 0
  %call = call noundef ptr @_ZNKSt15__uniq_ptr_implIN4llvh7APFloatESt14default_deleteIA_S1_EE6_M_ptrEv(ptr noundef nonnull align 8 dereferenceable(8) %_M_t) #10
  ret ptr %call
}

; Function Attrs: mustprogress nounwind uwtable
define linkonce_odr hidden noundef zeroext i1 @_ZNK4llvh7APFloat10isNegativeEv(ptr noundef nonnull align 8 dereferenceable(32) %this) #1 comdat align 2 {
entry:
  %this.addr = alloca ptr, align 8
  store ptr %this, ptr %this.addr, align 8
  %this1 = load ptr, ptr %this.addr, align 8
  %call = call noundef nonnull align 8 dereferenceable(24) ptr @_ZNK4llvh7APFloat7getIEEEEv(ptr noundef nonnull align 8 dereferenceable(32) %this1)
  %call2 = call noundef zeroext i1 @_ZNK4llvh6detail9IEEEFloat10isNegativeEv(ptr noundef nonnull align 8 dereferenceable(24) %call)
  ret i1 %call2
}

; Function Attrs: mustprogress nounwind uwtable
define linkonce_odr hidden noundef i32 @_ZNK4llvh7APFloat11getCategoryEv(ptr noundef nonnull align 8 dereferenceable(32) %this) #1 comdat align 2 {
entry:
  %this.addr = alloca ptr, align 8
  store ptr %this, ptr %this.addr, align 8
  %this1 = load ptr, ptr %this.addr, align 8
  %call = call noundef nonnull align 8 dereferenceable(24) ptr @_ZNK4llvh7APFloat7getIEEEEv(ptr noundef nonnull align 8 dereferenceable(32) %this1)
  %call2 = call noundef i32 @_ZNK4llvh6detail9IEEEFloat11getCategoryEv(ptr noundef nonnull align 8 dereferenceable(24) %call)
  ret i32 %call2
}

; Function Attrs: mustprogress nounwind uwtable
define linkonce_odr hidden noundef nonnull align 8 dereferenceable(32) ptr @_ZNKSt10unique_ptrIA_N4llvh7APFloatESt14default_deleteIS2_EEixEm(ptr noundef nonnull align 8 dereferenceable(8) %this, i64 noundef %__i) #1 comdat align 2 {
entry:
  %this.addr = alloca ptr, align 8
  %__i.addr = alloca i64, align 8
  store ptr %this, ptr %this.addr, align 8
  store i64 %__i, ptr %__i.addr, align 8
  %this1 = load ptr, ptr %this.addr, align 8
  br label %do.body

do.body:                                          ; preds = %entry
  br label %do.end

do.end:                                           ; preds = %do.body
  %call = call noundef ptr @_ZNKSt10unique_ptrIA_N4llvh7APFloatESt14default_deleteIS2_EE3getEv(ptr noundef nonnull align 8 dereferenceable(8) %this1) #10
  %0 = load i64, ptr %__i.addr, align 8
  %arrayidx = getelementptr inbounds %"class.llvh::APFloat", ptr %call, i64 %0
  ret ptr %arrayidx
}

; Function Attrs: mustprogress nounwind uwtable
define hidden noundef zeroext i1 @_ZNK4llvh6detail13DoubleAPFloat10isNegativeEv(ptr noundef nonnull align 8 dereferenceable(16) %this) #1 align 2 {
entry:
  %this.addr = alloca ptr, align 8
  store ptr %this, ptr %this.addr, align 8
  %this1 = load ptr, ptr %this.addr, align 8
  %Floats = getelementptr inbounds %"class.llvh::detail::DoubleAPFloat", ptr %this1, i32 0, i32 1
  %call = call noundef nonnull align 8 dereferenceable(32) ptr @_ZNKSt10unique_ptrIA_N4llvh7APFloatESt14default_deleteIS2_EEixEm(ptr noundef nonnull align 8 dereferenceable(8) %Floats, i64 noundef 0)
  %call2 = call noundef zeroext i1 @_ZNK4llvh7APFloat10isNegativeEv(ptr noundef nonnull align 8 dereferenceable(32) %call)
  ret i1 %call2
}

; Function Attrs: mustprogress nounwind uwtable
define hidden noundef i32 @_ZNK4llvh6detail13DoubleAPFloat11getCategoryEv(ptr noundef nonnull align 8 dereferenceable(16) %this) #1 align 2 {
entry:
  %this.addr = alloca ptr, align 8
  store ptr %this, ptr %this.addr, align 8
  %this1 = load ptr, ptr %this.addr, align 8
  %Floats = getelementptr inbounds %"class.llvh::detail::DoubleAPFloat", ptr %this1, i32 0, i32 1
  %call = call noundef nonnull align 8 dereferenceable(32) ptr @_ZNKSt10unique_ptrIA_N4llvh7APFloatESt14default_deleteIS2_EEixEm(ptr noundef nonnull align 8 dereferenceable(8) %Floats, i64 noundef 0)
  %call2 = call noundef i32 @_ZNK4llvh7APFloat11getCategoryEv(ptr noundef nonnull align 8 dereferenceable(32) %call)
  ret i32 %call2
}

; Function Attrs: mustprogress nounwind uwtable
define hidden noundef zeroext i1 @_ZNK4llvh6detail13DoubleAPFloat9isLargestEv(ptr noundef nonnull align 8 dereferenceable(16) %this) #1 align 2 {
entry:
  %retval = alloca i1, align 1
  %this.addr = alloca ptr, align 8
  %Tmp = alloca %"class.llvh::detail::DoubleAPFloat", align 8
  store ptr %this, ptr %this.addr, align 8
  %this1 = load ptr, ptr %this.addr, align 8
  %call = call noundef i32 @_ZNK4llvh6detail13DoubleAPFloat11getCategoryEv(ptr noundef nonnull align 8 dereferenceable(16) %this1)
  %cmp = icmp ne i32 %call, 2
  br i1 %cmp, label %if.then, label %if.end

if.then:                                          ; preds = %entry
  store i1 false, ptr %retval, align 1
  br label %return

if.end:                                           ; preds = %entry
  call void @_ZN4llvh6detail13DoubleAPFloatC1ERKS1_(ptr noundef nonnull align 8 dereferenceable(16) %Tmp, ptr noundef nonnull align 8 dereferenceable(16) %this1)
  %call2 = call noundef zeroext i1 @_ZNK4llvh6detail13DoubleAPFloat10isNegativeEv(ptr noundef nonnull align 8 dereferenceable(16) %this1)
  call void @_ZN4llvh6detail13DoubleAPFloat11makeLargestEb(ptr noundef nonnull align 8 dereferenceable(16) %Tmp, i1 noundef zeroext %call2)
  %call3 = call noundef i32 @_ZNK4llvh6detail13DoubleAPFloat7compareERKS1_(ptr noundef nonnull align 8 dereferenceable(16) %Tmp, ptr noundef nonnull align 8 dereferenceable(16) %this1)
  %cmp4 = icmp eq i32 %call3, 1
  store i1 %cmp4, ptr %retval, align 1
  call void @_ZN4llvh6detail13DoubleAPFloatD2Ev(ptr noundef nonnull align 8 dereferenceable(16) %Tmp) #10
  br label %return

return:                                           ; preds = %if.end, %if.then
  %0 = load i1, ptr %retval, align 1
  ret i1 %0
}