; Function Attrs: mustprogress nounwind uwtable
define hidden noundef zeroext i1 @_ZNK4llvh6detail13DoubleAPFloat9isLargestEv(ptr noundef nonnull readonly align 8 captures(none) dereferenceable(16) %this) local_unnamed_addr #2 align 2 {
entry:
  %Tmp = alloca %"class.llvh::detail::DoubleAPFloat", align 8
  %Floats.i = getelementptr inbounds nuw i8, ptr %this, i64 8
  %0 = load ptr, ptr %Floats.i, align 8
  %U.i.i.i = getelementptr inbounds nuw i8, ptr %0, i64 8
  %1 = load ptr, ptr %U.i.i.i, align 8
  %cmp.i.not.i.i.i = icmp eq ptr %1, @_ZN4llvhL18semPPCDoubleDoubleE
  %Floats.i.i.i.i = getelementptr inbounds nuw i8, ptr %0, i64 16
  %2 = load ptr, ptr %Floats.i.i.i.i, align 8
  %U8.i.i.i = getelementptr inbounds nuw i8, ptr %2, i64 8
  %retval.0.i.i.i = select i1 %cmp.i.not.i.i.i, ptr %U8.i.i.i, ptr %U.i.i.i
  %category.i.i.i = getelementptr inbounds nuw i8, ptr %retval.0.i.i.i, i64 18
  %bf.load.i.i.i = load i8, ptr %category.i.i.i, align 2
  %bf.clear.i.i.i = and i8 %bf.load.i.i.i, 7
  %cmp.not = icmp eq i8 %bf.clear.i.i.i, 2
  br i1 %cmp.not, label %_ZN4llvh6detail13DoubleAPFloatC2ERKS1_.exit, label %return

_ZN4llvh6detail13DoubleAPFloatC2ERKS1_.exit:      ; preds = %entry
  %3 = load ptr, ptr %this, align 8
  store ptr %3, ptr %Tmp, align 8
  %call4.i = tail call noalias noundef nonnull dereferenceable(72) ptr @_Znam(i64 noundef 72) #24
  store i64 2, ptr %call4.i, align 16
  %4 = getelementptr inbounds nuw i8, ptr %call4.i, i64 8
  %U.i.i = getelementptr inbounds nuw i8, ptr %call4.i, i64 16
  tail call void @_ZN4llvh7APFloat7StorageC2ERKS1_(ptr noundef nonnull align 8 dereferenceable(24) %U.i.i, ptr noundef nonnull align 8 dereferenceable(24) %U.i.i.i)
  %5 = load ptr, ptr %Floats.i, align 8
  %U.i4.i = getelementptr inbounds nuw i8, ptr %call4.i, i64 48
  %U2.i5.i = getelementptr inbounds nuw i8, ptr %5, i64 40
  tail call void @_ZN4llvh7APFloat7StorageC2ERKS1_(ptr noundef nonnull align 8 dereferenceable(24) %U.i4.i, ptr noundef nonnull align 8 dereferenceable(24) %U2.i5.i)
  %Floats.i1 = getelementptr inbounds nuw i8, ptr %Tmp, i64 8
  store ptr %4, ptr %Floats.i1, align 8
  %6 = load ptr, ptr %Floats.i, align 8
  %U.i.i.i3 = getelementptr inbounds nuw i8, ptr %6, i64 8
  %7 = load ptr, ptr %U.i.i.i3, align 8
  %cmp.i.not.i.i.i4 = icmp eq ptr %7, @_ZN4llvhL18semPPCDoubleDoubleE
  %Floats.i.i.i.i5 = getelementptr inbounds nuw i8, ptr %6, i64 16
  %8 = load ptr, ptr %Floats.i.i.i.i5, align 8
  %U8.i.i.i6 = getelementptr inbounds nuw i8, ptr %8, i64 8
  %retval.0.i.i.i7 = select i1 %cmp.i.not.i.i.i4, ptr %U8.i.i.i6, ptr %U.i.i.i3
  %sign.i.i.i = getelementptr inbounds nuw i8, ptr %retval.0.i.i.i7, i64 18
  %bf.load.i.i.i8 = load i8, ptr %sign.i.i.i, align 2
  %9 = and i8 %bf.load.i.i.i8, 8
  %tobool.i.i.i = icmp ne i8 %9, 0
  call void @_ZN4llvh6detail13DoubleAPFloat11makeLargestEb(ptr noundef nonnull align 8 dereferenceable(16) %Tmp, i1 noundef zeroext %tobool.i.i.i)
  %call3 = call noundef i32 @_ZNK4llvh6detail13DoubleAPFloat7compareERKS1_(ptr noundef nonnull align 8 dereferenceable(16) %Tmp, ptr noundef nonnull align 8 dereferenceable(16) %this)
  %cmp4 = icmp eq i32 %call3, 1
  call void @_ZN4llvh6detail13DoubleAPFloatD2Ev(ptr noundef nonnull align 8 dereferenceable(16) %Tmp) #26
  br label %return

return:                                           ; preds = %entry, %_ZN4llvh6detail13DoubleAPFloatC2ERKS1_.exit
  %retval.0 = phi i1 [ %cmp4, %_ZN4llvh6detail13DoubleAPFloatC2ERKS1_.exit ], [ false, %entry ]
  ret i1 %retval.0
}